target datalayout = "e-m:e-p270:32:32-p271:32:32-p272:64:64-i64:64-i128:128-f80:128-n8:16:32:64-S128"
target triple = "x86_64-pc-linux-gnu"

%"class.llvm::StringRef" = type { ptr, i64 }
%"class.llvm::DiagnosticInfo.base" = type <{ ptr, i32, i8 }>
%"class.llvm::DiagnosticInfo" = type <{ ptr, i32, i8, [3 x i8] }>
%"class.llvm::Value" = type { i8, i8, i16, i32, ptr, ptr }
%"class.llvm::DiagnosticLocation" = type { ptr, i32, i32 }
%"class.llvm::DiagnosticInfoWithLocationBase" = type { %"class.llvm::DiagnosticInfo.base", ptr, %"class.llvm::DiagnosticLocation" }
%"class.llvm::ilist_node_base.4" = type { %"class.llvm::ilist_detail::node_base_prevnext.5" }
%"class.llvm::ilist_detail::node_base_prevnext.5" = type { ptr, ptr }
%"class.llvm::SmallVectorBase.75" = type { ptr, i32, i32 }
%"class.llvm::ilist_node_impl" = type { %"class.llvm::ilist_node_base" }
%"class.llvm::ilist_node_base" = type { %"class.llvm::ilist_detail::node_base_prevnext", %"class.llvm::ilist_detail::node_base_parent" }
%"class.llvm::ilist_detail::node_base_prevnext" = type { ptr, ptr }
%"class.llvm::ilist_detail::node_base_parent" = type { ptr }
%"class.llvm::DiagnosticInfoOptimizationBase" = type { %"class.llvm::DiagnosticInfoWithLocationBase", ptr, %"class.llvm::StringRef", %"class.std::optional.103", %"class.llvm::SmallVector.111", i8, i32 }
%"class.std::optional.103" = type { %"struct.std::_Optional_base.104" }
%"struct.std::_Optional_base.104" = type { %"struct.std::_Optional_payload.106" }
%"struct.std::_Optional_payload.106" = type { %"struct.std::_Optional_payload_base.base.108", [7 x i8] }
%"struct.std::_Optional_payload_base.base.108" = type <{ %"union.std::_Optional_payload_base<unsigned long>::_Storage", i8 }>
%"union.std::_Optional_payload_base<unsigned long>::_Storage" = type { i64 }
%"class.llvm::SmallVector.111" = type { %"class.llvm::SmallVectorImpl.112", %"struct.llvm::SmallVectorStorage.115" }
%"class.llvm::SmallVectorImpl.112" = type { %"class.llvm::SmallVectorTemplateBase.113" }
%"class.llvm::SmallVectorTemplateBase.113" = type { %"class.llvm::SmallVectorTemplateCommon.114" }
%"class.llvm::SmallVectorTemplateCommon.114" = type { %"class.llvm::SmallVectorBase.75" }
%"struct.llvm::SmallVectorStorage.115" = type { [320 x i8] }
%"class.llvm::BasicBlock" = type { %"class.llvm::Value", %"class.llvm::ilist_node_with_parent.116", i8, i32, %"class.llvm::SymbolTableList.118", ptr }
%"class.llvm::ilist_node_with_parent.116" = type { %"class.llvm::ilist_node.117" }
%"class.llvm::ilist_node.117" = type { %"class.llvm::ilist_node_impl.8" }
%"class.llvm::ilist_node_impl.8" = type { %"class.llvm::ilist_node_base.4" }
%"class.llvm::SymbolTableList.118" = type { %"class.llvm::iplist_impl.119" }
%"class.llvm::iplist_impl.119" = type { %"class.llvm::simple_ilist.122" }
%"class.llvm::simple_ilist.122" = type { %"class.llvm::ilist_sentinel.125" }
%"class.llvm::ilist_sentinel.125" = type { %"class.llvm::ilist_node_impl" }
%"class.llvm::DiagnosticInfoIROptimization" = type { %"class.llvm::DiagnosticInfoOptimizationBase", ptr }
%"struct.std::_Optional_payload_base.107" = type <{ %"union.std::_Optional_payload_base<unsigned long>::_Storage", i8, [7 x i8] }>

@_ZTVN4llvm14DiagnosticInfoE = unnamed_addr constant { [6 x ptr] } { [6 x ptr] [ptr null, ptr null, ptr @_ZN4llvm14DiagnosticInfo6anchorEv, ptr @_ZN4llvm14DiagnosticInfoD2Ev, ptr @_ZN4llvm14DiagnosticInfoD0Ev, ptr @__cxa_pure_virtual] }, align 8

; Function Attrs: mustprogress nounwind uwtable
define linkonce_odr hidden noundef ptr @_ZNK4llvm25SmallVectorTemplateCommonINS_30DiagnosticInfoOptimizationBase8ArgumentEvE10getFirstElEv(ptr noundef nonnull align 8 dereferenceable(16) %0) #0 comdat align 2 {
  %2 = alloca ptr, align 8
  store ptr %0, ptr %2, align 8
  %3 = load ptr, ptr %2, align 8
  %4 = getelementptr inbounds i8, ptr %3, i64 16
  ret ptr %4
}

; Function Attrs: mustprogress nounwind uwtable
define linkonce_odr hidden void @_ZNSt22_Optional_payload_baseImE8_StorageImLb1EEC2Ev(ptr noundef nonnull align 8 dereferenceable(8) %0) unnamed_addr #0 comdat align 2 {
  %2 = alloca ptr, align 8
  store ptr %0, ptr %2, align 8
  ret void
}

; Function Attrs: mustprogress nounwind uwtable
define linkonce_odr hidden void @_ZN4llvm25SmallVectorTemplateCommonINS_30DiagnosticInfoOptimizationBase8ArgumentEvEC2Em(ptr noundef nonnull align 8 dereferenceable(16) %0, i64 noundef %1) unnamed_addr #0 comdat align 2 {
  %3 = alloca ptr, align 8
  %4 = alloca i64, align 8
  store ptr %0, ptr %3, align 8
  store i64 %1, ptr %4, align 8
  %5 = load ptr, ptr %3, align 8
  %6 = call noundef ptr @_ZNK4llvm25SmallVectorTemplateCommonINS_30DiagnosticInfoOptimizationBase8ArgumentEvE10getFirstElEv(ptr noundef nonnull align 8 dereferenceable(16) %5)
  %7 = load i64, ptr %4, align 8
  call void @_ZN4llvm15SmallVectorBaseIjEC2EPvm(ptr noundef nonnull align 8 dereferenceable(16) %5, ptr noundef %6, i64 noundef %7)
  ret void
}

; Function Attrs: mustprogress nounwind uwtable
define linkonce_odr hidden void @_ZNSt22_Optional_payload_baseImEC2Ev(ptr noundef nonnull align 8 dereferenceable(9) %0) unnamed_addr #0 comdat align 2 {
  %2 = alloca ptr, align 8
  store ptr %0, ptr %2, align 8
  %3 = load ptr, ptr %2, align 8
  %4 = getelementptr inbounds nuw %"struct.std::_Optional_payload_base.107", ptr %3, i32 0, i32 0
  call void @_ZNSt22_Optional_payload_baseImE8_StorageImLb1EEC2Ev(ptr noundef nonnull align 8 dereferenceable(8) %4) #9
  %5 = getelementptr inbounds nuw %"struct.std::_Optional_payload_base.107", ptr %3, i32 0, i32 1
  store i8 0, ptr %5, align 8
  ret void
}

; Function Attrs: mustprogress nounwind uwtable
define linkonce_odr hidden void @_ZN4llvm23SmallVectorTemplateBaseINS_30DiagnosticInfoOptimizationBase8ArgumentELb0EEC2Em(ptr noundef nonnull align 8 dereferenceable(16) %0, i64 noundef %1) unnamed_addr #0 comdat align 2 {
  %3 = alloca ptr, align 8
  %4 = alloca i64, align 8
  store ptr %0, ptr %3, align 8
  store i64 %1, ptr %4, align 8
  %5 = load ptr, ptr %3, align 8
  %6 = load i64, ptr %4, align 8
  call void @_ZN4llvm25SmallVectorTemplateCommonINS_30DiagnosticInfoOptimizationBase8ArgumentEvEC2Em(ptr noundef nonnull align 8 dereferenceable(16) %5, i64 noundef %6)
  ret void
}

; Function Attrs: mustprogress nounwind uwtable
define linkonce_odr hidden void @_ZNSt17_Optional_payloadImLb1ELb1ELb1EEC2Ev(ptr noundef nonnull align 8 dereferenceable(9) %0) unnamed_addr #0 comdat align 2 {
  %2 = alloca ptr, align 8
  store ptr %0, ptr %2, align 8
  %3 = load ptr, ptr %2, align 8
  call void @_ZNSt22_Optional_payload_baseImEC2Ev(ptr noundef nonnull align 8 dereferenceable(9) %3) #9
  ret void
}

; Function Attrs: mustprogress nounwind uwtable
define linkonce_odr hidden void @_ZN4llvm15SmallVectorImplINS_30DiagnosticInfoOptimizationBase8ArgumentEEC2Ej(ptr noundef nonnull align 8 dereferenceable(16) %0, i32 noundef %1) unnamed_addr #0 comdat align 2 {
  %3 = alloca ptr, align 8
  %4 = alloca i32, align 4
  store ptr %0, ptr %3, align 8
  store i32 %1, ptr %4, align 4
  %5 = load ptr, ptr %3, align 8
  %6 = load i32, ptr %4, align 4
  %7 = zext i32 %6 to i64
  call void @_ZN4llvm23SmallVectorTemplateBaseINS_30DiagnosticInfoOptimizationBase8ArgumentELb0EEC2Em(ptr noundef nonnull align 8 dereferenceable(16) %5, i64 noundef %7)
  ret void
}

; Function Attrs: mustprogress nounwind uwtable
define linkonce_odr hidden void @_ZNSt14_Optional_baseImLb1ELb1EEC2Ev(ptr noundef nonnull align 8 dereferenceable(16) %0) unnamed_addr #0 comdat align 2 {
  %2 = alloca ptr, align 8
  store ptr %0, ptr %2, align 8
  %3 = load ptr, ptr %2, align 8
  %4 = getelementptr inbounds nuw %"struct.std::_Optional_base.104", ptr %3, i32 0, i32 0
  call void @_ZNSt17_Optional_payloadImLb1ELb1ELb1EEC2Ev(ptr noundef nonnull align 8 dereferenceable(9) %4) #9
  ret void
}

; Function Attrs: mustprogress nounwind uwtable
define linkonce_odr hidden void @_ZN4llvm14DiagnosticInfoC2EiNS_18DiagnosticSeverityE(ptr noundef nonnull align 8 dereferenceable(13) %0, i32 noundef %1, i8 noundef signext %2) unnamed_addr #0 comdat align 2 {
  %4 = alloca ptr, align 8
  %5 = alloca i32, align 4
  %6 = alloca i8, align 1
  store ptr %0, ptr %4, align 8
  store i32 %1, ptr %5, align 4
  store i8 %2, ptr %6, align 1
  %7 = load ptr, ptr %4, align 8
  store ptr getelementptr inbounds inrange(-16, 32) ({ [6 x ptr] }, ptr @_ZTVN4llvm14DiagnosticInfoE, i32 0, i32 0, i32 2), ptr %7, align 8
  %8 = getelementptr inbounds nuw %"class.llvm::DiagnosticInfo", ptr %7, i32 0, i32 1
  %9 = load i32, ptr %5, align 4
  store i32 %9, ptr %8, align 8
  %10 = getelementptr inbounds nuw %"class.llvm::DiagnosticInfo", ptr %7, i32 0, i32 2
  %11 = load i8, ptr %6, align 1
  store i8 %11, ptr %10, align 4
  ret void
}

; Function Attrs: mustprogress nounwind uwtable
define linkonce_odr hidden void @_ZN4llvm11SmallVectorINS_30DiagnosticInfoOptimizationBase8ArgumentELj4EEC2Ev(ptr noundef nonnull align 8 dereferenceable(336) %0) unnamed_addr #0 comdat align 2 {
  %2 = alloca ptr, align 8
  store ptr %0, ptr %2, align 8
  %3 = load ptr, ptr %2, align 8
  call void @_ZN4llvm15SmallVectorImplINS_30DiagnosticInfoOptimizationBase8ArgumentEEC2Ej(ptr noundef nonnull align 8 dereferenceable(16) %3, i32 noundef 4)
  ret void
}

; Function Attrs: mustprogress nounwind uwtable
define linkonce_odr hidden void @_ZNSt8optionalImEC2Ev(ptr noundef nonnull align 8 dereferenceable(16) %0) unnamed_addr #0 comdat align 2 {
  %2 = alloca ptr, align 8
  store ptr %0, ptr %2, align 8
  %3 = load ptr, ptr %2, align 8
  call void @_ZNSt14_Optional_baseImLb1ELb1EEC2Ev(ptr noundef nonnull align 8 dereferenceable(16) %3) #9
  ret void
}

; Function Attrs: mustprogress nounwind uwtable
define linkonce_odr hidden void @_ZN4llvm30DiagnosticInfoWithLocationBaseC2ENS_14DiagnosticKindENS_18DiagnosticSeverityERKNS_8FunctionERKNS_18DiagnosticLocationE(ptr noundef nonnull align 8 dereferenceable(40) %0, i32 noundef %1, i8 noundef signext %2, ptr noundef nonnull align 8 dereferenceable(136) %3, ptr noundef nonnull align 8 dereferenceable(16) %4) unnamed_addr #0 comdat align 2 {
  %6 = alloca ptr, align 8
  %7 = alloca i32, align 4
  %8 = alloca i8, align 1
  %9 = alloca ptr, align 8
  %10 = alloca ptr, align 8
  store ptr %0, ptr %6, align 8
  store i32 %1, ptr %7, align 4
  store i8 %2, ptr %8, align 1
  store ptr %3, ptr %9, align 8
  store ptr %4, ptr %10, align 8
  %11 = load ptr, ptr %6, align 8
  %12 = load i32, ptr %7, align 4
  %13 = load i8, ptr %8, align 1
  call void @_ZN4llvm14DiagnosticInfoC2EiNS_18DiagnosticSeverityE(ptr noundef nonnull align 8 dereferenceable(13) %11, i32 noundef %12, i8 noundef signext %13)
  store ptr getelementptr inbounds inrange(-16, 32) ({ [6 x ptr] }, ptr @_ZTVN4llvm30DiagnosticInfoWithLocationBaseE, i32 0, i32 0, i32 2), ptr %11, align 8
  %14 = getelementptr inbounds nuw %"class.llvm::DiagnosticInfoWithLocationBase", ptr %11, i32 0, i32 1
  %15 = load ptr, ptr %9, align 8
  store ptr %15, ptr %14, align 8
  %16 = getelementptr inbounds nuw %"class.llvm::DiagnosticInfoWithLocationBase", ptr %11, i32 0, i32 2
  %17 = load ptr, ptr %10, align 8
  call void @llvm.memcpy.p0.p0.i64(ptr align 8 %16, ptr align 8 %17, i64 16, i1 false)
  ret void
}

; Function Attrs: mustprogress nounwind uwtable
define linkonce_odr hidden noundef ptr @_ZN4llvm16cast_convert_valINS_10BasicBlockEPKNS_5ValueES4_E4doitES4_(ptr noundef %0) #0 comdat align 2 {
  %2 = alloca ptr, align 8
  store ptr %0, ptr %2, align 8
  %3 = load ptr, ptr %2, align 8
  ret ptr %3
}

; Function Attrs: mustprogress nounwind uwtable
define linkonce_odr hidden void @_ZN4llvm30DiagnosticInfoOptimizationBaseC2ENS_14DiagnosticKindENS_18DiagnosticSeverityEPKcNS_9StringRefERKNS_8FunctionERKNS_18DiagnosticLocationE(ptr noundef nonnull align 8 dereferenceable(424) %0, i32 noundef %1, i8 noundef signext %2, ptr noundef %3, ptr %4, i64 %5, ptr noundef nonnull align 8 dereferenceable(136) %6, ptr noundef nonnull align 8 dereferenceable(16) %7) unnamed_addr #0 comdat align 2 {
  %9 = alloca %"class.llvm::StringRef", align 8
  %10 = alloca ptr, align 8
  %11 = alloca i32, align 4
  %12 = alloca i8, align 1
  %13 = alloca ptr, align 8
  %14 = alloca ptr, align 8
  %15 = alloca ptr, align 8
  %16 = getelementptr inbounds nuw { ptr, i64 }, ptr %9, i32 0, i32 0
  store ptr %4, ptr %16, align 8
  %17 = getelementptr inbounds nuw { ptr, i64 }, ptr %9, i32 0, i32 1
  store i64 %5, ptr %17, align 8
  store ptr %0, ptr %10, align 8
  store i32 %1, ptr %11, align 4
  store i8 %2, ptr %12, align 1
  store ptr %3, ptr %13, align 8
  store ptr %6, ptr %14, align 8
  store ptr %7, ptr %15, align 8
  %18 = load ptr, ptr %10, align 8
  %19 = load i32, ptr %11, align 4
  %20 = load i8, ptr %12, align 1
  %21 = load ptr, ptr %14, align 8
  %22 = load ptr, ptr %15, align 8
  call void @_ZN4llvm30DiagnosticInfoWithLocationBaseC2ENS_14DiagnosticKindENS_18DiagnosticSeverityERKNS_8FunctionERKNS_18DiagnosticLocationE(ptr noundef nonnull align 8 dereferenceable(40) %18, i32 noundef %19, i8 noundef signext %20, ptr noundef nonnull align 8 dereferenceable(136) %21, ptr noundef nonnull align 8 dereferenceable(16) %22)
  store ptr getelementptr inbounds inrange(-16, 40) ({ [7 x ptr] }, ptr @_ZTVN4llvm30DiagnosticInfoOptimizationBaseE, i32 0, i32 0, i32 2), ptr %18, align 8
  %23 = getelementptr inbounds nuw %"class.llvm::DiagnosticInfoOptimizationBase", ptr %18, i32 0, i32 1
  %24 = load ptr, ptr %13, align 8
  store ptr %24, ptr %23, align 8
  %25 = getelementptr inbounds nuw %"class.llvm::DiagnosticInfoOptimizationBase", ptr %18, i32 0, i32 2
  call void @llvm.memcpy.p0.p0.i64(ptr align 8 %25, ptr align 8 %9, i64 16, i1 false)
  %26 = getelementptr inbounds nuw %"class.llvm::DiagnosticInfoOptimizationBase", ptr %18, i32 0, i32 3
  call void @_ZNSt8optionalImEC2Ev(ptr noundef nonnull align 8 dereferenceable(16) %26) #9
  %27 = getelementptr inbounds nuw %"class.llvm::DiagnosticInfoOptimizationBase", ptr %18, i32 0, i32 4
  call void @_ZN4llvm11SmallVectorINS_30DiagnosticInfoOptimizationBase8ArgumentELj4EEC2Ev(ptr noundef nonnull align 8 dereferenceable(336) %27)
  %28 = getelementptr inbounds nuw %"class.llvm::DiagnosticInfoOptimizationBase", ptr %18, i32 0, i32 5
  store i8 0, ptr %28, align 8
  %29 = getelementptr inbounds nuw %"class.llvm::DiagnosticInfoOptimizationBase", ptr %18, i32 0, i32 6
  store i32 -1, ptr %29, align 4
  ret void
}

; Function Attrs: mustprogress nounwind uwtable
define linkonce_odr hidden noundef ptr @_ZN4llvm8CastInfoINS_10BasicBlockEPKNS_5ValueEvE6doCastERKS4_(ptr noundef nonnull align 8 dereferenceable(8) %0) #0 comdat align 2 {
  %2 = alloca ptr, align 8
  store ptr %0, ptr %2, align 8
  %3 = load ptr, ptr %2, align 8
  %4 = load ptr, ptr %3, align 8
  %5 = call noundef ptr @_ZN4llvm16cast_convert_valINS_10BasicBlockEPKNS_5ValueES4_E4doitES4_(ptr noundef %4)
  ret ptr %5
}

; Function Attrs: mustprogress nounwind uwtable
define linkonce_odr hidden void @_ZN4llvm28DiagnosticInfoIROptimizationC2ENS_14DiagnosticKindENS_18DiagnosticSeverityEPKcNS_9StringRefERKNS_8FunctionERKNS_18DiagnosticLocationEPKNS_5ValueE(ptr noundef nonnull align 8 dereferenceable(432) %0, i32 noundef %1, i8 noundef signext %2, ptr noundef %3, ptr %4, i64 %5, ptr noundef nonnull align 8 dereferenceable(136) %6, ptr noundef nonnull align 8 dereferenceable(16) %7, ptr noundef %8) unnamed_addr #0 comdat align 2 {
  %10 = alloca %"class.llvm::StringRef", align 8
  %11 = alloca ptr, align 8
  %12 = alloca i32, align 4
  %13 = alloca i8, align 1
  %14 = alloca ptr, align 8
  %15 = alloca ptr, align 8
  %16 = alloca ptr, align 8
  %17 = alloca ptr, align 8
  %18 = alloca %"class.llvm::StringRef", align 8
  %19 = getelementptr inbounds nuw { ptr, i64 }, ptr %10, i32 0, i32 0
  store ptr %4, ptr %19, align 8
  %20 = getelementptr inbounds nuw { ptr, i64 }, ptr %10, i32 0, i32 1
  store i64 %5, ptr %20, align 8
  store ptr %0, ptr %11, align 8
  store i32 %1, ptr %12, align 4
  store i8 %2, ptr %13, align 1
  store ptr %3, ptr %14, align 8
  store ptr %6, ptr %15, align 8
  store ptr %7, ptr %16, align 8
  store ptr %8, ptr %17, align 8
  %21 = load ptr, ptr %11, align 8
  %22 = load i32, ptr %12, align 4
  %23 = load i8, ptr %13, align 1
  %24 = load ptr, ptr %14, align 8
  call void @llvm.memcpy.p0.p0.i64(ptr align 8 %18, ptr align 8 %10, i64 16, i1 false)
  %25 = load ptr, ptr %15, align 8
  %26 = load ptr, ptr %16, align 8
  %27 = getelementptr inbounds nuw { ptr, i64 }, ptr %18, i32 0, i32 0
  %28 = load ptr, ptr %27, align 8
  %29 = getelementptr inbounds nuw { ptr, i64 }, ptr %18, i32 0, i32 1
  %30 = load i64, ptr %29, align 8
  call void @_ZN4llvm30DiagnosticInfoOptimizationBaseC2ENS_14DiagnosticKindENS_18DiagnosticSeverityEPKcNS_9StringRefERKNS_8FunctionERKNS_18DiagnosticLocationE(ptr noundef nonnull align 8 dereferenceable(424) %21, i32 noundef %22, i8 noundef signext %23, ptr noundef %24, ptr %28, i64 %30, ptr noundef nonnull align 8 dereferenceable(136) %25, ptr noundef nonnull align 8 dereferenceable(16) %26)
  store ptr getelementptr inbounds inrange(-16, 40) ({ [7 x ptr] }, ptr @_ZTVN4llvm28DiagnosticInfoIROptimizationE, i32 0, i32 0, i32 2), ptr %21, align 8
  %31 = getelementptr inbounds nuw %"class.llvm::DiagnosticInfoIROptimization", ptr %21, i32 0, i32 1
  %32 = load ptr, ptr %17, align 8
  store ptr %32, ptr %31, align 8
  ret void
}

; Function Attrs: mustprogress nounwind uwtable
define linkonce_odr hidden noundef ptr @_ZNK4llvm10BasicBlock9getParentEv(ptr noundef nonnull align 8 dereferenceable(80) %0) #0 comdat align 2 {
  %2 = alloca ptr, align 8
  store ptr %0, ptr %2, align 8
  %3 = load ptr, ptr %2, align 8
  %4 = getelementptr inbounds nuw %"class.llvm::BasicBlock", ptr %3, i32 0, i32 5
  %5 = load ptr, ptr %4, align 8
  ret ptr %5
}

; Function Attrs: mustprogress nounwind uwtable
define linkonce_odr hidden noundef ptr @_ZN4llvm4castINS_10BasicBlockEKNS_5ValueEEEDcPT0_(ptr noundef %0) #0 comdat {
  %2 = alloca ptr, align 8
  store ptr %0, ptr %2, align 8
  %3 = call noundef ptr @_ZN4llvm8CastInfoINS_10BasicBlockEPKNS_5ValueEvE6doCastERKS4_(ptr noundef nonnull align 8 dereferenceable(8) %2)
  ret ptr %3
}

; Function Attrs: mustprogress nounwind uwtable
define dso_local void @_ZN4llvm33DiagnosticInfoOptimizationFailureC2EPKcNS_9StringRefERKNS_18DiagnosticLocationEPKNS_5ValueE(ptr noundef nonnull align 8 dereferenceable(432) %0, ptr noundef %1, ptr %2, i64 %3, ptr noundef nonnull align 8 dereferenceable(16) %4, ptr noundef %5) unnamed_addr #0 align 2 {
  %7 = alloca %"class.llvm::StringRef", align 8
  %8 = alloca ptr, align 8
  %9 = alloca ptr, align 8
  %10 = alloca ptr, align 8
  %11 = alloca ptr, align 8
  %12 = alloca %"class.llvm::StringRef", align 8
  %13 = getelementptr inbounds nuw { ptr, i64 }, ptr %7, i32 0, i32 0
  store ptr %2, ptr %13, align 8
  %14 = getelementptr inbounds nuw { ptr, i64 }, ptr %7, i32 0, i32 1
  store i64 %3, ptr %14, align 8
  store ptr %0, ptr %8, align 8
  store ptr %1, ptr %9, align 8
  store ptr %4, ptr %10, align 8
  store ptr %5, ptr %11, align 8
  %15 = load ptr, ptr %8, align 8
  %16 = load ptr, ptr %9, align 8
  call void @llvm.memcpy.p0.p0.i64(ptr align 8 %12, ptr align 8 %7, i64 16, i1 false)
  %17 = load ptr, ptr %11, align 8
  %18 = call noundef ptr @_ZN4llvm4castINS_10BasicBlockEKNS_5ValueEEEDcPT0_(ptr noundef %17)
  %19 = call noundef ptr @_ZNK4llvm10BasicBlock9getParentEv(ptr noundef nonnull align 8 dereferenceable(80) %18)
  %20 = load ptr, ptr %10, align 8
  %21 = load ptr, ptr %11, align 8
  %22 = getelementptr inbounds nuw { ptr, i64 }, ptr %12, i32 0, i32 0
  %23 = load ptr, ptr %22, align 8
  %24 = getelementptr inbounds nuw { ptr, i64 }, ptr %12, i32 0, i32 1
  %25 = load i64, ptr %24, align 8
  call void @_ZN4llvm28DiagnosticInfoIROptimizationC2ENS_14DiagnosticKindENS_18DiagnosticSeverityEPKcNS_9StringRefERKNS_8FunctionERKNS_18DiagnosticLocationEPKNS_5ValueE(ptr noundef nonnull align 8 dereferenceable(432) %15, i32 noundef 14, i8 noundef signext 1, ptr noundef %16, ptr %23, i64 %25, ptr noundef nonnull align 8 dereferenceable(136) %19, ptr noundef nonnull align 8 dereferenceable(16) %20, ptr noundef %21)
  store ptr getelementptr inbounds inrange(-16, 40) ({ [7 x ptr] }, ptr @_ZTVN4llvm33DiagnosticInfoOptimizationFailureE, i32 0, i32 0, i32 2), ptr %15, align 8
  ret void
}